target datalayout = "e-m:e-p270:32:32-p271:32:32-p272:64:64-i64:64-i128:128-f80:128-n8:16:32:64-S128"
target triple = "x86_64-pc-linux-gnu"

%struct.strbuf = type { i64, i64, ptr }
%struct.active_request_slot = type { ptr, i32, i32, i64, ptr, ptr, ptr, ptr, ptr }
%struct.object_id = type { [32 x i8], i32 }
%struct.repository = type { ptr, ptr, ptr, ptr, ptr, %struct.strmap, %struct.strmap, %struct.repo_path_cache, ptr, ptr, ptr, ptr, %struct.repo_settings, ptr, ptr, ptr, ptr, ptr, ptr, i32, i32, i32, ptr, ptr, i32, i32, i8 }
%struct.strmap = type { %struct.hashmap, ptr, i8 }
%struct.hashmap = type { ptr, ptr, ptr, i32, i32, i32, i32, i8 }
%struct.repo_path_cache = type { ptr, ptr, ptr, ptr, ptr, ptr, ptr }
%struct.repo_settings = type { i32, i32, i32, i32, i32, i32, i32, i32, i32, i32, i32, i32, ptr, i32, i32, i32, i32, i32, i32, i32, i64, i64, i64 }
%struct.git_hash_algo = type { ptr, i32, i64, i64, i64, ptr, ptr, ptr, ptr, ptr, ptr, ptr, ptr, ptr }
%struct.http_object_request = type { ptr, %struct.strbuf, i32, i32, [256 x i8], i64, %struct.object_id, %struct.object_id, %union.git_hash_ctx, %struct.git_zstream, i32, i32, ptr, ptr }
%union.git_hash_ctx = type { %struct.SHA1_CTX }
%struct.SHA1_CTX = type { i64, [5 x i32], [64 x i8], i32, i32, i32, i32, i32, ptr, [5 x i32], [5 x i32], [80 x i32], [80 x i32], [80 x [5 x i32]] }
%struct.git_zstream = type { %struct.z_stream_s, i64, i64, i64, i64, ptr, ptr }
%struct.z_stream_s = type { ptr, i32, i64, ptr, i32, i64, ptr, ptr, ptr, ptr, ptr, i32, i64, i64 }
%struct.stat = type { i64, i64, i64, i32, i32, i32, i32, i64, i64, i64, i64, %struct.timespec, %struct.timespec, %struct.timespec, [3 x i64] }
%struct.timespec = type { i64, i64 }

@the_repository = external global ptr, align 8
@__const.finish_http_object_request.filename = private unnamed_addr constant %struct.strbuf { i64 0, i64 0, ptr @strbuf_slopbuf }, align 8
@.str.56 = private unnamed_addr constant [59 x i8] c"requested range invalid; we may already have all the data.\00", align 1

; Function Attrs: inlinehint nounwind uwtable
define internal i32 @oideq(ptr noundef %0, ptr noundef %1) #5 {
  %3 = alloca ptr, align 8
  %4 = alloca ptr, align 8
  store ptr %0, ptr %3, align 8, !tbaa !200
  store ptr %1, ptr %4, align 8, !tbaa !200
  %5 = load ptr, ptr %3, align 8, !tbaa !200
  %6 = getelementptr inbounds nuw %struct.object_id, ptr %5, i32 0, i32 0
  %7 = getelementptr inbounds [32 x i8], ptr %6, i64 0, i64 0
  %8 = load ptr, ptr %4, align 8, !tbaa !200
  %9 = getelementptr inbounds nuw %struct.object_id, ptr %8, i32 0, i32 0
  %10 = getelementptr inbounds [32 x i8], ptr %9, i64 0, i64 0
  %11 = call i32 @memcmp(ptr noundef %7, ptr noundef %10, i64 noundef 32) #13
  %12 = icmp ne i32 %11, 0
  %13 = xor i1 %12, true
  %14 = zext i1 %13 to i32
  ret i32 %14
}

; Function Attrs: nounwind uwtable
define dso_local void @process_http_object_request(ptr noundef %0) #0 {
  %2 = alloca ptr, align 8
  store ptr %0, ptr %2, align 8, !tbaa !201
  %3 = load ptr, ptr %2, align 8, !tbaa !201
  %4 = getelementptr inbounds nuw %struct.http_object_request, ptr %3, i32 0, i32 12
  %5 = load ptr, ptr %4, align 8, !tbaa !213
  %6 = icmp ne ptr %5, null
  br i1 %6, label %8, label %7

7:                                                ; preds = %1
  br label %25

8:                                                ; preds = %1
  %9 = load ptr, ptr %2, align 8, !tbaa !201
  %10 = getelementptr inbounds nuw %struct.http_object_request, ptr %9, i32 0, i32 12
  %11 = load ptr, ptr %10, align 8, !tbaa !213
  %12 = getelementptr inbounds nuw %struct.active_request_slot, ptr %11, i32 0, i32 2
  %13 = load i32, ptr %12, align 4, !tbaa !110
  %14 = load ptr, ptr %2, align 8, !tbaa !201
  %15 = getelementptr inbounds nuw %struct.http_object_request, ptr %14, i32 0, i32 3
  store i32 %13, ptr %15, align 4, !tbaa !225
  %16 = load ptr, ptr %2, align 8, !tbaa !201
  %17 = getelementptr inbounds nuw %struct.http_object_request, ptr %16, i32 0, i32 12
  %18 = load ptr, ptr %17, align 8, !tbaa !213
  %19 = getelementptr inbounds nuw %struct.active_request_slot, ptr %18, i32 0, i32 3
  %20 = load i64, ptr %19, align 8, !tbaa !216
  %21 = load ptr, ptr %2, align 8, !tbaa !201
  %22 = getelementptr inbounds nuw %struct.http_object_request, ptr %21, i32 0, i32 5
  store i64 %20, ptr %22, align 8, !tbaa !226
  %23 = load ptr, ptr %2, align 8, !tbaa !201
  %24 = getelementptr inbounds nuw %struct.http_object_request, ptr %23, i32 0, i32 12
  store ptr null, ptr %24, align 8, !tbaa !213
  br label %25

25:                                               ; preds = %8, %7
  ret void
}

; Function Attrs: nounwind uwtable
define dso_local i32 @finish_http_object_request(ptr noundef %0) #0 {
  %2 = alloca i32, align 4
  %3 = alloca ptr, align 8
  %4 = alloca %struct.stat, align 8
  %5 = alloca %struct.strbuf, align 8
  %6 = alloca i32, align 4
  store ptr %0, ptr %3, align 8, !tbaa !201
  call void @llvm.lifetime.start.p0(i64 144, ptr %4) #11
  call void @llvm.lifetime.start.p0(i64 24, ptr %5) #11
  call void @llvm.memcpy.p0.p0.i64(ptr align 8 %5, ptr align 8 @__const.finish_http_object_request.filename, i64 24, i1 false)
  %7 = load ptr, ptr %3, align 8, !tbaa !201
  %8 = getelementptr inbounds nuw %struct.http_object_request, ptr %7, i32 0, i32 2
  %9 = load i32, ptr %8, align 8, !tbaa !203
  %10 = call i32 @close(i32 noundef %9)
  %11 = load ptr, ptr %3, align 8, !tbaa !201
  %12 = getelementptr inbounds nuw %struct.http_object_request, ptr %11, i32 0, i32 2
  store i32 -1, ptr %12, align 8, !tbaa !203
  %13 = load ptr, ptr %3, align 8, !tbaa !201
  call void @process_http_object_request(ptr noundef %13)
  %14 = load ptr, ptr %3, align 8, !tbaa !201
  %15 = getelementptr inbounds nuw %struct.http_object_request, ptr %14, i32 0, i32 5
  %16 = load i64, ptr %15, align 8, !tbaa !226
  %17 = icmp eq i64 %16, 416
  br i1 %17, label %18, label %19

18:                                               ; preds = %1
  call void (ptr, ...) @warning(ptr noundef @.str.56)
  br label %44

19:                                               ; preds = %1
  %20 = load ptr, ptr %3, align 8, !tbaa !201
  %21 = getelementptr inbounds nuw %struct.http_object_request, ptr %20, i32 0, i32 3
  %22 = load i32, ptr %21, align 4, !tbaa !225
  %23 = icmp ne i32 %22, 0
  br i1 %23, label %24, label %43

24:                                               ; preds = %19
  %25 = load ptr, ptr %3, align 8, !tbaa !201
  %26 = getelementptr inbounds nuw %struct.http_object_request, ptr %25, i32 0, i32 1
  %27 = getelementptr inbounds nuw %struct.strbuf, ptr %26, i32 0, i32 2
  %28 = load ptr, ptr %27, align 8, !tbaa !209
  %29 = call i32 @stat64(ptr noundef %28, ptr noundef %4) #11
  %30 = icmp eq i32 %29, 0
  br i1 %30, label %31, label %42

31:                                               ; preds = %24
  %32 = getelementptr inbounds nuw %struct.stat, ptr %4, i32 0, i32 8
  %33 = load i64, ptr %32, align 8, !tbaa !227
  %34 = icmp eq i64 %33, 0
  br i1 %34, label %35, label %41

35:                                               ; preds = %31
  %36 = load ptr, ptr %3, align 8, !tbaa !201
  %37 = getelementptr inbounds nuw %struct.http_object_request, ptr %36, i32 0, i32 1
  %38 = getelementptr inbounds nuw %struct.strbuf, ptr %37, i32 0, i32 2
  %39 = load ptr, ptr %38, align 8, !tbaa !209
  %40 = call i32 @unlink_or_warn(ptr noundef %39)
  br label %41

41:                                               ; preds = %35, %31
  br label %42

42:                                               ; preds = %41, %24
  store i32 -1, ptr %2, align 4
  store i32 1, ptr %6, align 4
  br label %94

43:                                               ; preds = %19
  br label %44

44:                                               ; preds = %43, %18
  %45 = load ptr, ptr @the_repository, align 8, !tbaa !66
  %46 = getelementptr inbounds nuw %struct.repository, ptr %45, i32 0, i32 17
  %47 = load ptr, ptr %46, align 8, !tbaa !158
  %48 = getelementptr inbounds nuw %struct.git_hash_algo, ptr %47, i32 0, i32 9
  %49 = load ptr, ptr %48, align 8, !tbaa !230
  %50 = load ptr, ptr %3, align 8, !tbaa !201
  %51 = getelementptr inbounds nuw %struct.http_object_request, ptr %50, i32 0, i32 7
  %52 = load ptr, ptr %3, align 8, !tbaa !201
  %53 = getelementptr inbounds nuw %struct.http_object_request, ptr %52, i32 0, i32 8
  call void %49(ptr noundef %51, ptr noundef %53)
  %54 = load ptr, ptr %3, align 8, !tbaa !201
  %55 = getelementptr inbounds nuw %struct.http_object_request, ptr %54, i32 0, i32 10
  %56 = load i32, ptr %55, align 8, !tbaa !222
  %57 = icmp ne i32 %56, 1
  br i1 %57, label %58, label %64

58:                                               ; preds = %44
  %59 = load ptr, ptr %3, align 8, !tbaa !201
  %60 = getelementptr inbounds nuw %struct.http_object_request, ptr %59, i32 0, i32 1
  %61 = getelementptr inbounds nuw %struct.strbuf, ptr %60, i32 0, i32 2
  %62 = load ptr, ptr %61, align 8, !tbaa !209
  %63 = call i32 @unlink_or_warn(ptr noundef %62)
  store i32 -1, ptr %2, align 4
  store i32 1, ptr %6, align 4
  br label %94

64:                                               ; preds = %44
  %65 = load ptr, ptr %3, align 8, !tbaa !201
  %66 = getelementptr inbounds nuw %struct.http_object_request, ptr %65, i32 0, i32 6
  %67 = load ptr, ptr %3, align 8, !tbaa !201
  %68 = getelementptr inbounds nuw %struct.http_object_request, ptr %67, i32 0, i32 7
  %69 = call i32 @oideq(ptr noundef %66, ptr noundef %68)
  %70 = icmp ne i32 %69, 0
  br i1 %70, label %77, label %71

71:                                               ; preds = %64
  %72 = load ptr, ptr %3, align 8, !tbaa !201
  %73 = getelementptr inbounds nuw %struct.http_object_request, ptr %72, i32 0, i32 1
  %74 = getelementptr inbounds nuw %struct.strbuf, ptr %73, i32 0, i32 2
  %75 = load ptr, ptr %74, align 8, !tbaa !209
  %76 = call i32 @unlink_or_warn(ptr noundef %75)
  store i32 -1, ptr %2, align 4
  store i32 1, ptr %6, align 4
  br label %94

77:                                               ; preds = %64
  %78 = load ptr, ptr @the_repository, align 8, !tbaa !66
  %79 = load ptr, ptr %3, align 8, !tbaa !201
  %80 = getelementptr inbounds nuw %struct.http_object_request, ptr %79, i32 0, i32 6
  %81 = call ptr @loose_object_path(ptr noundef %78, ptr noundef %5, ptr noundef %80)
  %82 = load ptr, ptr %3, align 8, !tbaa !201
  %83 = getelementptr inbounds nuw %struct.http_object_request, ptr %82, i32 0, i32 1
  %84 = getelementptr inbounds nuw %struct.strbuf, ptr %83, i32 0, i32 2
  %85 = load ptr, ptr %84, align 8, !tbaa !209
  %86 = getelementptr inbounds nuw %struct.strbuf, ptr %5, i32 0, i32 2
  %87 = load ptr, ptr %86, align 8, !tbaa !35
  %88 = call i32 @finalize_object_file(ptr noundef %85, ptr noundef %87)
  %89 = load ptr, ptr %3, align 8, !tbaa !201
  %90 = getelementptr inbounds nuw %struct.http_object_request, ptr %89, i32 0, i32 11
  store i32 %88, ptr %90, align 4, !tbaa !231
  call void @strbuf_release(ptr noundef %5)
  %91 = load ptr, ptr %3, align 8, !tbaa !201
  %92 = getelementptr inbounds nuw %struct.http_object_request, ptr %91, i32 0, i32 11
  %93 = load i32, ptr %92, align 4, !tbaa !231
  store i32 %93, ptr %2, align 4
  store i32 1, ptr %6, align 4
  br label %94

94:                                               ; preds = %77, %71, %58, %42
  call void @llvm.lifetime.end.p0(i64 24, ptr %5) #11
  call void @llvm.lifetime.end.p0(i64 144, ptr %4) #11
  %95 = load i32, ptr %2, align 4
  ret i32 %95
}