; Function Attrs: nounwind uwtable
define dso_local i32 @finish_http_object_request(ptr noundef %0) local_unnamed_addr #3 {
  %2 = alloca %struct.stat, align 8
  %3 = alloca %struct.strbuf, align 8
  call void @llvm.lifetime.start.p0(i64 144, ptr nonnull %2) #22
  call void @llvm.lifetime.start.p0(i64 24, ptr nonnull %3) #22
  call void @llvm.memcpy.p0.p0.i64(ptr noundef nonnull align 8 dereferenceable(24) %3, ptr noundef nonnull align 8 dereferenceable(24) @__const.fetch_pack_index.buf, i64 24, i1 false)
  %4 = getelementptr inbounds nuw i8, ptr %0, i64 32
  %5 = load i32, ptr %4, align 8, !tbaa !178
  %6 = tail call i32 @close(i32 noundef %5) #22
  store i32 -1, ptr %4, align 8, !tbaa !178
  %7 = getelementptr inbounds nuw i8, ptr %0, i64 2944
  %8 = load ptr, ptr %7, align 8, !tbaa !187
  %.not.i = icmp eq ptr %8, null
  br i1 %.not.i, label %.process_http_object_request.exit_crit_edge, label %9

.process_http_object_request.exit_crit_edge:      ; preds = %1
  %.phi.trans.insert = getelementptr inbounds nuw i8, ptr %0, i64 296
  %.pre = load i64, ptr %.phi.trans.insert, align 8, !tbaa !198
  br label %process_http_object_request.exit

9:                                                ; preds = %1
  %10 = getelementptr inbounds nuw i8, ptr %8, i64 12
  %11 = load i32, ptr %10, align 4, !tbaa !97
  %12 = getelementptr inbounds nuw i8, ptr %0, i64 36
  store i32 %11, ptr %12, align 4, !tbaa !197
  %13 = getelementptr inbounds nuw i8, ptr %8, i64 16
  %14 = load i64, ptr %13, align 8, !tbaa !102
  %15 = getelementptr inbounds nuw i8, ptr %0, i64 296
  store i64 %14, ptr %15, align 8, !tbaa !198
  store ptr null, ptr %7, align 8, !tbaa !187
  br label %process_http_object_request.exit

process_http_object_request.exit:                 ; preds = %.process_http_object_request.exit_crit_edge, %9
  %16 = phi i64 [ %.pre, %.process_http_object_request.exit_crit_edge ], [ %14, %9 ]
  %17 = icmp eq i64 %16, 416
  br i1 %17, label %18, label %19

18:                                               ; preds = %process_http_object_request.exit
  tail call void (ptr, ...) @warning(ptr noundef nonnull @.str.56) #22
  br label %33

19:                                               ; preds = %process_http_object_request.exit
  %20 = getelementptr inbounds nuw i8, ptr %0, i64 36
  %21 = load i32, ptr %20, align 4, !tbaa !197
  %.not = icmp eq i32 %21, 0
  br i1 %.not, label %33, label %22

22:                                               ; preds = %19
  %23 = getelementptr inbounds nuw i8, ptr %0, i64 24
  %24 = load ptr, ptr %23, align 8, !tbaa !183
  %25 = call i32 @stat64(ptr noundef %24, ptr noundef nonnull %2) #22
  %26 = icmp eq i32 %25, 0
  %27 = getelementptr inbounds nuw i8, ptr %2, i64 48
  %28 = load i64, ptr %27, align 8
  %29 = icmp eq i64 %28, 0
  %or.cond = select i1 %26, i1 %29, i1 false
  br i1 %or.cond, label %30, label %63

30:                                               ; preds = %22
  %31 = load ptr, ptr %23, align 8, !tbaa !183
  %32 = tail call i32 @unlink_or_warn(ptr noundef %31) #22
  br label %63

33:                                               ; preds = %19, %18
  %34 = load ptr, ptr @the_repository, align 8, !tbaa !39
  %35 = getelementptr inbounds nuw i8, ptr %34, i64 400
  %36 = load ptr, ptr %35, align 8, !tbaa !139
  %37 = getelementptr inbounds nuw i8, ptr %36, i64 72
  %38 = load ptr, ptr %37, align 8, !tbaa !199
  %39 = getelementptr inbounds nuw i8, ptr %0, i64 340
  %40 = getelementptr inbounds nuw i8, ptr %0, i64 376
  tail call void %38(ptr noundef nonnull %39, ptr noundef nonnull %40) #22
  %41 = getelementptr inbounds nuw i8, ptr %0, i64 2936
  %42 = load i32, ptr %41, align 8, !tbaa !194
  %.not20 = icmp eq i32 %42, 1
  br i1 %.not20, label %47, label %43

43:                                               ; preds = %33
  %44 = getelementptr inbounds nuw i8, ptr %0, i64 24
  %45 = load ptr, ptr %44, align 8, !tbaa !183
  %46 = tail call i32 @unlink_or_warn(ptr noundef %45) #22
  br label %63

47:                                               ; preds = %33
  %48 = getelementptr inbounds nuw i8, ptr %0, i64 304
  %bcmp.i = tail call i32 @bcmp(ptr noundef nonnull readonly dereferenceable(32) %48, ptr noundef nonnull readonly dereferenceable(32) %39, i64 32)
  %.not.i22.not = icmp eq i32 %bcmp.i, 0
  br i1 %.not.i22.not, label %53, label %49

49:                                               ; preds = %47
  %50 = getelementptr inbounds nuw i8, ptr %0, i64 24
  %51 = load ptr, ptr %50, align 8, !tbaa !183
  %52 = tail call i32 @unlink_or_warn(ptr noundef %51) #22
  br label %63

53:                                               ; preds = %47
  %54 = load ptr, ptr @the_repository, align 8, !tbaa !39
  %55 = call ptr @loose_object_path(ptr noundef %54, ptr noundef nonnull %3, ptr noundef nonnull %48) #22
  %56 = getelementptr inbounds nuw i8, ptr %0, i64 24
  %57 = load ptr, ptr %56, align 8, !tbaa !183
  %58 = getelementptr inbounds nuw i8, ptr %3, i64 16
  %59 = load ptr, ptr %58, align 8, !tbaa !23
  %60 = call i32 @finalize_object_file(ptr noundef %57, ptr noundef %59) #22
  %61 = getelementptr inbounds nuw i8, ptr %0, i64 2940
  store i32 %60, ptr %61, align 4, !tbaa !200
  call void @strbuf_release(ptr noundef nonnull %3) #22
  %62 = load i32, ptr %61, align 4, !tbaa !200
  br label %63

63:                                               ; preds = %22, %30, %53, %49, %43
  %.0 = phi i32 [ -1, %43 ], [ %62, %53 ], [ -1, %49 ], [ -1, %30 ], [ -1, %22 ]
  call void @llvm.lifetime.end.p0(i64 24, ptr nonnull %3) #22
  call void @llvm.lifetime.end.p0(i64 144, ptr nonnull %2) #22
  ret i32 %.0
}